target datalayout = "e-m:e-p270:32:32-p271:32:32-p272:64:64-i64:64-i128:128-f80:128-n8:16:32:64-S128"
target triple = "x86_64-pc-linux-gnu"

%struct.passwd = type { ptr, ptr, i32, i32, ptr, ptr, ptr }

@PyExc_OverflowError = external global ptr, align 8
@PyExc_KeyError = external global ptr, align 8
@.str.5 = private unnamed_addr constant [26 x i8] c"getpwuid(): uid not found\00", align 1
@.str.6 = private unnamed_addr constant [30 x i8] c"getpwuid(): uid not found: %S\00", align 1

; Function Attrs: inlinehint nounwind uwtable
define internal void @Py_DECREF(ptr noundef %0) #4 {
  %2 = alloca ptr, align 8
  store ptr %0, ptr %2, align 8, !tbaa !4
  %3 = load ptr, ptr %2, align 8, !tbaa !4
  call void @_Py_DecRef(ptr noundef %3)
  ret void
}

; Function Attrs: nounwind uwtable
define internal ptr @pwd_getpwuid(ptr noundef %0, ptr noundef %1) #0 {
  %3 = alloca ptr, align 8
  %4 = alloca ptr, align 8
  %5 = alloca ptr, align 8
  %6 = alloca ptr, align 8
  %7 = alloca i32, align 4
  %8 = alloca i32, align 4
  %9 = alloca ptr, align 8
  %10 = alloca ptr, align 8
  %11 = alloca ptr, align 8
  %12 = alloca i32, align 4
  %13 = alloca i32, align 4
  %14 = alloca i64, align 8
  %15 = alloca %struct.passwd, align 8
  %16 = alloca ptr, align 8
  %17 = alloca ptr, align 8
  store ptr %0, ptr %4, align 8, !tbaa !4
  store ptr %1, ptr %5, align 8, !tbaa !4
  call void @llvm.lifetime.start.p0(i64 8, ptr %6) #6
  store ptr null, ptr %6, align 8, !tbaa !4
  call void @llvm.lifetime.start.p0(i64 4, ptr %7) #6
  call void @llvm.lifetime.start.p0(i64 4, ptr %8) #6
  store i32 0, ptr %8, align 4, !tbaa !13
  call void @llvm.lifetime.start.p0(i64 8, ptr %9) #6
  call void @llvm.lifetime.start.p0(i64 8, ptr %10) #6
  store ptr null, ptr %10, align 8, !tbaa !18
  call void @llvm.lifetime.start.p0(i64 8, ptr %11) #6
  store ptr null, ptr %11, align 8, !tbaa !18
  %18 = load ptr, ptr %5, align 8, !tbaa !4
  %19 = call i32 @_Py_Uid_Converter(ptr noundef %18, ptr noundef %7)
  %20 = icmp ne i32 %19, 0
  br i1 %20, label %29, label %21

21:                                               ; preds = %2
  %22 = load ptr, ptr @PyExc_OverflowError, align 8, !tbaa !4
  %23 = call i32 @PyErr_ExceptionMatches(ptr noundef %22)
  %24 = icmp ne i32 %23, 0
  br i1 %24, label %25, label %28

25:                                               ; preds = %21
  %26 = load ptr, ptr @PyExc_KeyError, align 8, !tbaa !4
  %27 = call ptr (ptr, ptr, ...) @PyErr_Format(ptr noundef %26, ptr noundef @.str.5)
  br label %28

28:                                               ; preds = %25, %21
  store ptr null, ptr %3, align 8
  store i32 1, ptr %12, align 4
  br label %96

29:                                               ; preds = %2
  call void @llvm.lifetime.start.p0(i64 4, ptr %13) #6
  call void @llvm.lifetime.start.p0(i64 8, ptr %14) #6
  call void @llvm.lifetime.start.p0(i64 48, ptr %15) #6
  call void @llvm.lifetime.start.p0(i64 8, ptr %16) #6
  %30 = call ptr @PyEval_SaveThread()
  store ptr %30, ptr %16, align 8, !tbaa !20
  %31 = call i64 @sysconf(i32 noundef 70) #6
  store i64 %31, ptr %14, align 8, !tbaa !22
  %32 = load i64, ptr %14, align 8, !tbaa !22
  %33 = icmp eq i64 %32, -1
  br i1 %33, label %34, label %35

34:                                               ; preds = %29
  store i64 1024, ptr %14, align 8, !tbaa !22
  br label %35

35:                                               ; preds = %34, %29
  br label %36

36:                                               ; preds = %64, %35
  br label %37

37:                                               ; preds = %36
  %38 = load ptr, ptr %10, align 8, !tbaa !18
  %39 = load i64, ptr %14, align 8, !tbaa !22
  %40 = call ptr @PyMem_RawRealloc(ptr noundef %38, i64 noundef %39)
  store ptr %40, ptr %11, align 8, !tbaa !18
  %41 = load ptr, ptr %11, align 8, !tbaa !18
  %42 = icmp eq ptr %41, null
  br i1 %42, label %43, label %44

43:                                               ; preds = %37
  store ptr null, ptr %9, align 8, !tbaa !24
  store i32 1, ptr %8, align 4, !tbaa !13
  br label %67

44:                                               ; preds = %37
  %45 = load ptr, ptr %11, align 8, !tbaa !18
  store ptr %45, ptr %10, align 8, !tbaa !18
  %46 = load i32, ptr %7, align 4, !tbaa !13
  %47 = load ptr, ptr %10, align 8, !tbaa !18
  %48 = load i64, ptr %14, align 8, !tbaa !22
  %49 = call i32 @getpwuid_r(i32 noundef %46, ptr noundef %15, ptr noundef %47, i64 noundef %48, ptr noundef %9)
  store i32 %49, ptr %13, align 4, !tbaa !13
  %50 = load i32, ptr %13, align 4, !tbaa !13
  %51 = icmp ne i32 %50, 0
  br i1 %51, label %52, label %53

52:                                               ; preds = %44
  store ptr null, ptr %9, align 8, !tbaa !24
  br label %53

53:                                               ; preds = %52, %44
  %54 = load ptr, ptr %9, align 8, !tbaa !24
  %55 = icmp ne ptr %54, null
  br i1 %55, label %59, label %56

56:                                               ; preds = %53
  %57 = load i32, ptr %13, align 4, !tbaa !13
  %58 = icmp ne i32 %57, 34
  br i1 %58, label %59, label %60

59:                                               ; preds = %56, %53
  br label %67

60:                                               ; preds = %56
  %61 = load i64, ptr %14, align 8, !tbaa !22
  %62 = icmp sgt i64 %61, 4611686018427387903
  br i1 %62, label %63, label %64

63:                                               ; preds = %60
  store i32 1, ptr %8, align 4, !tbaa !13
  br label %67

64:                                               ; preds = %60
  %65 = load i64, ptr %14, align 8, !tbaa !22
  %66 = shl i64 %65, 1
  store i64 %66, ptr %14, align 8, !tbaa !22
  br label %36

67:                                               ; preds = %63, %59, %43
  %68 = load ptr, ptr %16, align 8, !tbaa !20
  call void @PyEval_RestoreThread(ptr noundef %68)
  call void @llvm.lifetime.end.p0(i64 8, ptr %16) #6
  %69 = load ptr, ptr %9, align 8, !tbaa !24
  %70 = icmp eq ptr %69, null
  br i1 %70, label %71, label %89

71:                                               ; preds = %67
  %72 = load ptr, ptr %10, align 8, !tbaa !18
  call void @PyMem_RawFree(ptr noundef %72)
  %73 = load i32, ptr %8, align 4, !tbaa !13
  %74 = icmp eq i32 %73, 1
  br i1 %74, label %75, label %77

75:                                               ; preds = %71
  %76 = call ptr @PyErr_NoMemory()
  store ptr %76, ptr %3, align 8
  store i32 1, ptr %12, align 4
  br label %95

77:                                               ; preds = %71
  call void @llvm.lifetime.start.p0(i64 8, ptr %17) #6
  %78 = load i32, ptr %7, align 4, !tbaa !13
  %79 = call ptr @_PyLong_FromUid(i32 noundef %78)
  store ptr %79, ptr %17, align 8, !tbaa !4
  %80 = load ptr, ptr %17, align 8, !tbaa !4
  %81 = icmp eq ptr %80, null
  br i1 %81, label %82, label %83

82:                                               ; preds = %77
  store ptr null, ptr %3, align 8
  store i32 1, ptr %12, align 4
  br label %88

83:                                               ; preds = %77
  %84 = load ptr, ptr @PyExc_KeyError, align 8, !tbaa !4
  %85 = load ptr, ptr %17, align 8, !tbaa !4
  %86 = call ptr (ptr, ptr, ...) @PyErr_Format(ptr noundef %84, ptr noundef @.str.6, ptr noundef %85)
  %87 = load ptr, ptr %17, align 8, !tbaa !4
  call void @Py_DECREF(ptr noundef %87)
  store ptr null, ptr %3, align 8
  store i32 1, ptr %12, align 4
  br label %88

88:                                               ; preds = %83, %82
  call void @llvm.lifetime.end.p0(i64 8, ptr %17) #6
  br label %95

89:                                               ; preds = %67
  %90 = load ptr, ptr %4, align 8, !tbaa !4
  %91 = load ptr, ptr %9, align 8, !tbaa !24
  %92 = call ptr @mkpwent(ptr noundef %90, ptr noundef %91)
  store ptr %92, ptr %6, align 8, !tbaa !4
  %93 = load ptr, ptr %10, align 8, !tbaa !18
  call void @PyMem_RawFree(ptr noundef %93)
  %94 = load ptr, ptr %6, align 8, !tbaa !4
  store ptr %94, ptr %3, align 8
  store i32 1, ptr %12, align 4
  br label %95

95:                                               ; preds = %89, %88, %75
  call void @llvm.lifetime.end.p0(i64 48, ptr %15) #6
  call void @llvm.lifetime.end.p0(i64 8, ptr %14) #6
  call void @llvm.lifetime.end.p0(i64 4, ptr %13) #6
  br label %96

96:                                               ; preds = %95, %28
  call void @llvm.lifetime.end.p0(i64 8, ptr %11) #6
  call void @llvm.lifetime.end.p0(i64 8, ptr %10) #6
  call void @llvm.lifetime.end.p0(i64 8, ptr %9) #6
  call void @llvm.lifetime.end.p0(i64 4, ptr %8) #6
  call void @llvm.lifetime.end.p0(i64 4, ptr %7) #6
  call void @llvm.lifetime.end.p0(i64 8, ptr %6) #6
  %97 = load ptr, ptr %3, align 8
  ret ptr %97
}