; Function Attrs: nounwind uwtable
define internal ptr @pwd_getpwuid(ptr noundef %0, ptr noundef %1) #0 {
  %3 = alloca i32, align 4
  %4 = alloca ptr, align 8
  %5 = alloca %struct.passwd, align 8
  call void @llvm.lifetime.start.p0(i64 4, ptr nonnull %3) #4
  call void @llvm.lifetime.start.p0(i64 8, ptr nonnull %4) #4
  %6 = call i32 @_Py_Uid_Converter(ptr noundef %1, ptr noundef nonnull %3) #4
  %.not = icmp eq i32 %6, 0
  br i1 %.not, label %7, label %13

7:                                                ; preds = %2
  %8 = load ptr, ptr @PyExc_OverflowError, align 8, !tbaa !11
  %9 = call i32 @PyErr_ExceptionMatches(ptr noundef %8) #4
  %.not29 = icmp eq i32 %9, 0
  br i1 %.not29, label %45, label %10

10:                                               ; preds = %7
  %11 = load ptr, ptr @PyExc_KeyError, align 8, !tbaa !11
  %12 = call ptr (ptr, ptr, ...) @PyErr_Format(ptr noundef %11, ptr noundef nonnull @.str.5) #4
  br label %45

13:                                               ; preds = %2
  call void @llvm.lifetime.start.p0(i64 48, ptr nonnull %5) #4
  %14 = call ptr @PyEval_SaveThread() #4
  %15 = call i64 @sysconf(i32 noundef 70) #4
  %16 = icmp eq i64 %15, -1
  %spec.store.select = select i1 %16, i64 1024, i64 %15
  %17 = call ptr @PyMem_RawRealloc(ptr noundef null, i64 noundef %spec.store.select) #4
  %18 = icmp eq ptr %17, null
  br i1 %18, label %._crit_edge, label %.lr.ph

19:                                               ; preds = %27
  %20 = shl i64 %.02235, 1
  %21 = call ptr @PyMem_RawRealloc(ptr noundef nonnull %23, i64 noundef %20) #4
  %22 = icmp eq ptr %21, null
  br i1 %22, label %._crit_edge, label %.lr.ph

._crit_edge:                                      ; preds = %19, %13
  %.024.lcssa = phi ptr [ null, %13 ], [ %23, %19 ]
  store ptr null, ptr %4, align 8, !tbaa !13
  br label %.thread

.lr.ph:                                           ; preds = %13, %19
  %23 = phi ptr [ %21, %19 ], [ %17, %13 ]
  %.02235 = phi i64 [ %20, %19 ], [ %spec.store.select, %13 ]
  %24 = load i32, ptr %3, align 4, !tbaa !15
  %25 = call i32 @getpwuid_r(i32 noundef %24, ptr noundef nonnull %5, ptr noundef nonnull %23, i64 noundef %.02235, ptr noundef nonnull %4) #4
  %.not30 = icmp eq i32 %25, 0
  br i1 %.not30, label %.thread, label %26

26:                                               ; preds = %.lr.ph
  store ptr null, ptr %4, align 8, !tbaa !13
  %.not32 = icmp eq i32 %25, 34
  br i1 %.not32, label %27, label %.thread

27:                                               ; preds = %26
  %28 = icmp sgt i64 %.02235, 4611686018427387903
  br i1 %28, label %.thread, label %19

.thread:                                          ; preds = %.lr.ph, %27, %26, %._crit_edge
  %.125 = phi ptr [ %.024.lcssa, %._crit_edge ], [ %23, %26 ], [ %23, %27 ], [ %23, %.lr.ph ]
  %29 = phi i1 [ true, %._crit_edge ], [ false, %.lr.ph ], [ true, %27 ], [ false, %26 ]
  call void @PyEval_RestoreThread(ptr noundef %14) #4
  %30 = load ptr, ptr %4, align 8, !tbaa !13
  %31 = icmp eq ptr %30, null
  br i1 %31, label %32, label %42

32:                                               ; preds = %.thread
  call void @PyMem_RawFree(ptr noundef %.125) #4
  br i1 %29, label %33, label %35

33:                                               ; preds = %32
  %34 = call ptr @PyErr_NoMemory() #4
  br label %44

35:                                               ; preds = %32
  %36 = load i32, ptr %3, align 4, !tbaa !15
  %37 = call ptr @_PyLong_FromUid(i32 noundef %36) #4
  %38 = icmp eq ptr %37, null
  br i1 %38, label %44, label %39

39:                                               ; preds = %35
  %40 = load ptr, ptr @PyExc_KeyError, align 8, !tbaa !11
  %41 = call ptr (ptr, ptr, ...) @PyErr_Format(ptr noundef %40, ptr noundef nonnull @.str.6, ptr noundef nonnull %37) #4
  call void @_Py_DecRef(ptr noundef nonnull %37) #4
  br label %44

42:                                               ; preds = %.thread
  %43 = call fastcc ptr @mkpwent(ptr noundef %0, ptr noundef %30)
  call void @PyMem_RawFree(ptr noundef %.125) #4
  br label %44

44:                                               ; preds = %39, %35, %42, %33
  %.1 = phi ptr [ %34, %33 ], [ %43, %42 ], [ null, %35 ], [ null, %39 ]
  call void @llvm.lifetime.end.p0(i64 48, ptr nonnull %5) #4
  br label %45

45:                                               ; preds = %7, %10, %44
  %.0 = phi ptr [ %.1, %44 ], [ null, %10 ], [ null, %7 ]
  call void @llvm.lifetime.end.p0(i64 8, ptr nonnull %4) #4
  call void @llvm.lifetime.end.p0(i64 4, ptr nonnull %3) #4
  ret ptr %.0
}